; ModuleID = 'bench/openjdk/original/invocationCounter.ll'
source_filename = "bench/openjdk/original/invocationCounter.ll"
target datalayout = "e-m:e-p270:32:32-p271:32:32-p272:64:64-i64:64-i128:128-f80:128-n8:16:32:64-S128"
target triple = "x86_64-pc-linux-gnu"

@tty = external local_unnamed_addr global ptr, align 8
@.str = private unnamed_addr constant [51 x i8] c"invocation count: up = %d, limit = %ld, carry = %s\00", align 1
@.str.4 = private unnamed_addr constant [5 x i8] c"true\00", align 1
@.str.5 = private unnamed_addr constant [6 x i8] c"false\00", align 1
@CompileThreshold = external local_unnamed_addr global i64, align 8
@llvm.global_ctors = appending global [0 x { i32, ptr, ptr }] zeroinitializer

; Function Attrs: mustprogress nofree norecurse nosync nounwind willreturn memory(argmem: write) uwtable
define hidden void @_ZN17InvocationCounter4initEv(ptr nocapture noundef nonnull writeonly align 4 dereferenceable(4) %0) local_unnamed_addr #0 align 2 {
  store i32 0, ptr %0, align 4
  ret void
}

; Function Attrs: mustprogress nofree norecurse nosync nounwind willreturn memory(argmem: write) uwtable
define hidden void @_ZN17InvocationCounter3setEjj(ptr nocapture noundef nonnull writeonly align 4 dereferenceable(4) %0, i32 noundef %1, i32 noundef %2) local_unnamed_addr #0 align 2 {
  %4 = shl i32 %1, 1
  %5 = and i32 %2, 1
  %6 = or disjoint i32 %5, %4
  store i32 %6, ptr %0, align 4
  ret void
}

; Function Attrs: mustprogress nofree norecurse nosync nounwind willreturn memory(argmem: readwrite) uwtable
define hidden void @_ZN17InvocationCounter3setEj(ptr nocapture noundef nonnull align 4 dereferenceable(4) %0, i32 noundef %1) local_unnamed_addr #1 align 2 {
  %3 = load i32, ptr %0, align 4
  %4 = and i32 %3, 1
  %5 = shl i32 %1, 1
  %6 = or disjoint i32 %4, %5
  store i32 %6, ptr %0, align 4
  ret void
}

; Function Attrs: mustprogress nofree norecurse nosync nounwind willreturn memory(argmem: readwrite) uwtable
define hidden void @_ZN17InvocationCounter6updateEj(ptr nocapture noundef nonnull align 4 dereferenceable(4) %0, i32 noundef %1) local_unnamed_addr #1 align 2 {
  %3 = load i32, ptr %0, align 4
  %4 = and i32 %3, 1
  %5 = icmp ugt i32 %3, 1
  %6 = icmp eq i32 %1, 0
  %or.cond = and i1 %6, %5
  %7 = shl i32 %1, 1
  %8 = select i1 %or.cond, i32 2, i32 %7
  %9 = or disjoint i32 %8, %4
  store i32 %9, ptr %0, align 4
  ret void
}

; Function Attrs: mustprogress nofree norecurse nosync nounwind willreturn memory(argmem: readwrite) uwtable
define hidden void @_ZN17InvocationCounter21set_carry_on_overflowEv(ptr nocapture noundef nonnull align 4 dereferenceable(4) %0) local_unnamed_addr #1 align 2 {
  %2 = load i32, ptr %0, align 4
  %3 = and i32 %2, 1
  %4 = icmp eq i32 %3, 0
  %5 = icmp ugt i32 %2, 1073741825
  %or.cond = and i1 %5, %4
  br i1 %or.cond, label %6, label %8

6:                                                ; preds = %1
  %7 = or disjoint i32 %2, 1
  store i32 %7, ptr %0, align 4
  br label %8

8:                                                ; preds = %6, %1
  ret void
}

; Function Attrs: mustprogress nofree norecurse nosync nounwind willreturn memory(argmem: readwrite) uwtable
define hidden void @_ZN17InvocationCounter5resetEv(ptr nocapture noundef nonnull align 4 dereferenceable(4) %0) local_unnamed_addr #1 align 2 {
  %2 = load i32, ptr %0, align 4
  %3 = and i32 %2, 1
  %.inv = icmp ult i32 %2, 2
  %4 = select i1 %.inv, i32 0, i32 2
  %5 = or disjoint i32 %4, %3
  store i32 %5, ptr %0, align 4
  ret void
}

; Function Attrs: mustprogress nounwind uwtable
define hidden void @_ZN17InvocationCounter5printEv(ptr nocapture noundef nonnull readonly align 4 dereferenceable(4) %0) local_unnamed_addr #2 align 2 {
  %2 = load i32, ptr %0, align 4
  %3 = load ptr, ptr @tty, align 8
  %4 = lshr i32 %2, 1
  %5 = load i64, ptr @CompileThreshold, align 8
  %6 = and i32 %2, 1
  %.not = icmp eq i32 %6, 0
  %7 = select i1 %.not, ptr @.str.5, ptr @.str.4
  tail call void (ptr, ptr, ...) @_ZN12outputStream8print_crEPKcz(ptr noundef nonnull align 8 dereferenceable(56) %3, ptr noundef nonnull @.str, i32 noundef %4, i64 noundef %5, ptr noundef nonnull %7) #4
  ret void
}

declare void @_ZN12outputStream8print_crEPKcz(ptr noundef nonnull align 8 dereferenceable(56), ptr noundef, ...) local_unnamed_addr #3


!llvm.module.flags = !{!0, !1, !2, !3, !4, !5}

!0 = !{i32 7, !"Dwarf Version", i32 5}
!1 = !{i32 2, !"Debug Info Version", i32 3}
!2 = !{i32 1, !"wchar_size", i32 4}
!3 = !{i32 8, !"PIC Level", i32 2}
!4 = !{i32 7, !"uwtable", i32 2}
!5 = !{i32 7, !"frame-pointer", i32 2}
